Certificate:
    Data:
        Version: 3 (0x2)
        Serial Number: 12519775241207420707 (0xadbf2d3fcfe61723)
    Signature Algorithm: sha256WithRSAEncryption
        Issuer: C=PL, ST=\xC3\x85\xC2\x9Al\xC3\x84\xC2\x85sk, O=Railgun Solutions, CN=railgun-solutions.com/emailAddress=ca@railgun-solutions.com
        Validity
            Not Before: May  1 13:56:48 2015 GMT
            Not After : Apr 30 13:56:48 2018 GMT
        Subject: C=PL, ST=\xC3\x85\xC2\x9Al\xC3\x84\xC2\x85sk, O=Railgun Solutions, CN=railgun-solutions.com/emailAddress=ca@railgun-solutions.com
        Subject Public Key Info:
            Public Key Algorithm: rsaEncryption
                Public-Key: (2048 bit)
                Modulus:
                    00:a7:75:cb:86:68:45:4e:80:2e:ac:86:48:22:42:
                    1e:8c:28:02:72:0a:49:36:56:1b:47:11:a3:c1:c9:
                    1f:ad:de:7b:b0:7f:9a:42:d8:45:4f:e8:b7:a1:21:
                    8b:b8:d3:85:66:45:2f:40:4e:18:06:ba:1c:d5:b6:
                    ff:d9:86:d2:0c:73:d2:22:69:87:77:73:bf:83:b6:
                    bb:d8:bb:85:68:77:a3:cd:7b:68:96:28:28:ba:bb:
                    54:2e:96:e1:82:af:b5:fc:69:9c:41:ef:ef:21:d1:
                    71:29:d1:b5:1f:27:1a:46:23:a4:a8:9f:95:81:06:
                    a0:8b:7c:79:6a:31:d2:7c:7d:18:40:c4:7b:05:53:
                    02:05:09:f6:a5:29:4d:3f:db:c3:e1:d0:1b:2f:10:
                    7d:8b:b5:fa:45:fd:ec:e0:8f:c6:81:72:f6:97:86:
                    16:d3:a3:30:6f:90:d6:c3:ca:3f:ea:f0:76:1c:5f:
                    8e:0b:19:0e:8d:8a:6e:cc:e6:46:55:16:a2:36:a8:
                    d5:f6:a0:ef:71:5f:92:d0:ee:30:45:99:5e:ba:ec:
                    81:05:3b:f8:5d:a4:0d:68:9d:f9:ce:d0:d6:4d:56:
                    36:6b:5b:32:a2:dd:7f:71:77:0a:de:7a:65:e9:bb:
                    d8:6e:46:05:ae:d0:54:be:47:d7:c7:c4:56:42:72:
                    8b:a7
                Exponent: 65537 (0x10001)
        X509v3 extensions:
            X509v3 Subject Key Identifier: 
                BA:27:27:54:8C:9B:CD:49:E3:88:2F:6E:52:00:55:92:19:F4:6F:04
            X509v3 Authority Key Identifier: 
                keyid:BA:27:27:54:8C:9B:CD:49:E3:88:2F:6E:52:00:55:92:19:F4:6F:04

            X509v3 Basic Constraints: 
                CA:TRUE
    Signature Algorithm: sha256WithRSAEncryption
         4e:93:7b:03:ff:d9:87:73:33:85:39:72:07:77:d4:49:d1:8d:
         d2:7a:73:e5:28:64:43:a6:a4:a3:ae:e7:b0:25:e6:45:b6:1b:
         a3:b9:c4:f1:7a:af:0c:38:dd:50:39:ad:43:06:7d:43:0a:2c:
         3b:9a:a8:df:1d:60:c7:5b:c8:c6:ef:9b:dd:2a:10:25:51:b1:
         38:fd:1e:67:42:43:c9:62:a8:68:91:4c:84:c3:41:1f:1f:25:
         94:87:cf:29:e2:bf:71:81:76:a4:04:ff:e6:f2:88:f2:40:59:
         39:80:dc:39:f6:81:ce:b5:7d:01:37:10:da:95:51:80:a8:f7:
         b0:3c:34:55:93:39:88:9d:97:c8:29:c7:56:be:f4:d7:a8:e3:
         97:60:53:d9:bf:aa:af:04:1d:df:fa:c1:26:02:a7:02:79:ea:
         1a:84:1f:b7:5c:cd:78:2f:4a:77:70:5d:ee:f1:6b:85:69:78:
         fc:e0:4c:05:fd:8e:bb:32:f0:70:f5:16:b9:30:f7:13:a8:bc:
         51:87:7b:7b:8b:35:79:a8:e5:5e:ce:77:97:01:d4:dd:fc:fe:
         4e:87:eb:72:68:91:14:15:62:29:63:fe:0b:85:78:6a:87:07:
         91:4d:0c:94:54:1b:e2:86:08:16:a2:00:ae:e0:f9:09:6a:93:
         5c:bb:9f:27
-----BEGIN CERTIFICATE-----
MIID5TCCAs2gAwIBAgIJAK2/LT/P5hcjMA0GCSqGSIb3DQEBCwUAMIGIMQswCQYD
VQQGEwJQTDEUMBIGA1UECAwLw4XCmmzDhMKFc2sxGjAYBgNVBAoMEVJhaWxndW4g
U29sdXRpb25zMR4wHAYDVQQDDBVyYWlsZ3VuLXNvbHV0aW9ucy5jb20xJzAlBgkq
hkiG9w0BCQEWGGNhQHJhaWxndW4tc29sdXRpb25zLmNvbTAeFw0xNTA1MDExMzU2
NDhaFw0xODA0MzAxMzU2NDhaMIGIMQswCQYDVQQGEwJQTDEUMBIGA1UECAwLw4XC
mmzDhMKFc2sxGjAYBgNVBAoMEVJhaWxndW4gU29sdXRpb25zMR4wHAYDVQQDDBVy
YWlsZ3VuLXNvbHV0aW9ucy5jb20xJzAlBgkqhkiG9w0BCQEWGGNhQHJhaWxndW4t
c29sdXRpb25zLmNvbTCCASIwDQYJKoZIhvcNAQEBBQADggEPADCCAQoCggEBAKd1
y4ZoRU6ALqyGSCJCHowoAnIKSTZWG0cRo8HJH63ee7B/mkLYRU/ot6Ehi7jThWZF
L0BOGAa6HNW2/9mG0gxz0iJph3dzv4O2u9i7hWh3o817aJYoKLq7VC6W4YKvtfxp
nEHv7yHRcSnRtR8nGkYjpKiflYEGoIt8eWox0nx9GEDEewVTAgUJ9qUpTT/bw+HQ
Gy8QfYu1+kX97OCPxoFy9peGFtOjMG+Q1sPKP+rwdhxfjgsZDo2KbszmRlUWojao
1fag73FfktDuMEWZXrrsgQU7+F2kDWid+c7Q1k1WNmtbMqLdf3F3Ct56Zem72G5G
Ba7QVL5H18fEVkJyi6cCAwEAAaNQME4wHQYDVR0OBBYEFLonJ1SMm81J44gvblIA
VZIZ9G8EMB8GA1UdIwQYMBaAFLonJ1SMm81J44gvblIAVZIZ9G8EMAwGA1UdEwQF
MAMBAf8wDQYJKoZIhvcNAQELBQADggEBAE6TewP/2YdzM4U5cgd31EnRjdJ6c+Uo
ZEOmpKOu57Al5kW2G6O5xPF6rww43VA5rUMGfUMKLDuaqN8dYMdbyMbvm90qECVR
sTj9HmdCQ8liqGiRTITDQR8fJZSHzyniv3GBdqQE/+byiPJAWTmA3Dn2gc61fQE3
ENqVUYCo97A8NFWTOYidl8gpx1a+9Neo45dgU9m/qq8EHd/6wSYCpwJ56hqEH7dc
zXgvSndwXe7xa4VpePzgTAX9jrsy8HD1Frkw9xOovFGHe3uLNXmo5V7Od5cB1N38
/k6H63JokRQVYilj/guFeGqHB5FNDJRUG+KGCBaiAK7g+Qlqk1y7nyc=
-----END CERTIFICATE-----
