Certificate:
    Data:
        Version: 3 (0x2)
        Serial Number: 12519775241207420709 (0xadbf2d3fcfe61725)
    Signature Algorithm: sha256WithRSAEncryption
        Issuer: C=PL, ST=\xC3\x85\xC2\x9Al\xC3\x84\xC2\x85sk, O=Railgun Solutions, CN=railgun-solutions.com/emailAddress=ca@railgun-solutions.com
        Validity
            Not Before: Nov 14 16:45:36 2015 GMT
            Not After : Nov 13 16:45:36 2016 GMT
        Subject: C=PL, ST=Slask, L=Gliwice, O=Panda-5, CN=panda-5.herokuapp.com
        Subject Public Key Info:
            Public Key Algorithm: rsaEncryption
                Public-Key: (2048 bit)
                Modulus:
                    00:ca:0a:7c:7c:69:1f:f6:0f:e1:ea:8e:66:1a:89:
                    e3:d1:89:91:7c:26:23:59:4b:65:47:62:ad:1a:d7:
                    b8:ac:78:7b:26:a0:2c:cb:50:cb:f4:7f:37:6a:72:
                    48:75:a2:85:7b:80:fa:b1:51:6f:67:5c:c9:c4:76:
                    b2:ce:25:47:12:e5:ba:6c:76:c0:60:4b:6f:56:b9:
                    bb:95:69:3a:82:82:53:5d:f5:93:f2:98:4d:b9:2c:
                    f2:2b:3c:cb:4c:da:bf:31:77:c1:3c:5c:80:ac:ce:
                    e7:b1:5c:ed:d1:dc:8c:34:b3:5f:f6:8a:81:cf:18:
                    31:c2:1b:ae:e6:43:ab:62:bf:31:92:60:6f:5d:91:
                    49:80:e6:ee:a6:ba:06:79:0b:79:f8:a7:d9:4e:7f:
                    87:3a:31:ff:c0:81:86:9f:59:a9:e7:0b:8f:b5:a9:
                    fc:06:4a:0f:01:8b:e6:90:50:a7:34:c3:fb:2d:06:
                    82:03:bc:55:0a:3e:a8:43:d0:a9:76:31:96:ad:79:
                    15:3e:63:ac:0f:74:07:4c:c4:8f:70:06:e5:71:b7:
                    c3:82:b0:ce:c1:d8:0b:0e:bf:ad:41:7d:b2:bf:72:
                    10:c1:b0:fb:03:17:bb:ef:93:0a:f2:78:74:0c:8b:
                    71:2c:a0:a4:76:ce:e0:ee:e9:f7:c0:1c:fa:18:6f:
                    57:89
                Exponent: 65537 (0x10001)
        X509v3 extensions:
            X509v3 Basic Constraints: 
                CA:FALSE
            Netscape Comment: 
                OpenSSL Generated Certificate
            X509v3 Subject Key Identifier: 
                8E:DD:C1:18:32:48:F1:79:5F:B3:76:A0:8F:60:39:F5:F7:86:D1:E5
            X509v3 Authority Key Identifier: 
                keyid:BA:27:27:54:8C:9B:CD:49:E3:88:2F:6E:52:00:55:92:19:F4:6F:04

    Signature Algorithm: sha256WithRSAEncryption
         1c:d7:38:b7:87:36:fb:65:c1:0b:52:6a:a6:7b:0c:bc:fa:0d:
         02:e3:a7:ba:0c:64:d7:bf:7c:39:06:d3:a9:79:10:d1:2c:9f:
         57:24:72:1c:3a:4f:8d:ed:59:6e:c6:c3:3a:06:23:3c:34:b9:
         ed:61:8d:6d:55:6f:e7:7c:ab:04:06:1d:28:53:39:bb:cc:90:
         ec:d2:6d:e8:fb:a5:50:92:71:8a:b1:41:6a:94:91:0c:c9:f7:
         7d:f5:ea:c4:97:40:e6:cb:0e:0e:15:e2:31:52:be:42:34:ad:
         b4:bb:14:a8:2c:c4:6b:3a:92:eb:d9:f1:65:00:d9:0c:7e:9d:
         99:11:83:ab:d8:dc:f6:25:e1:bb:32:a6:dd:7a:2b:98:91:f5:
         9f:16:ea:72:e2:21:84:82:d4:71:cd:04:ba:2f:b1:64:41:b5:
         51:b6:76:14:c6:a2:0d:b7:35:ed:b3:c3:a8:1a:ab:6e:23:32:
         ef:af:eb:e8:11:64:34:12:f6:f2:88:39:a2:52:20:74:00:0a:
         05:19:4a:35:77:6c:d2:1c:f5:98:83:91:28:cb:ca:2e:17:13:
         c8:79:e9:a1:f6:43:87:fa:fd:0b:13:42:4b:c3:0e:08:0a:0d:
         12:d4:f3:ff:08:d1:a2:22:2d:77:23:01:87:c6:84:97:ed:0d:
         bf:4c:3b:5b
-----BEGIN CERTIFICATE-----
MIID6DCCAtCgAwIBAgIJAK2/LT/P5hclMA0GCSqGSIb3DQEBCwUAMIGIMQswCQYD
VQQGEwJQTDEUMBIGA1UECAwLw4XCmmzDhMKFc2sxGjAYBgNVBAoMEVJhaWxndW4g
U29sdXRpb25zMR4wHAYDVQQDDBVyYWlsZ3VuLXNvbHV0aW9ucy5jb20xJzAlBgkq
hkiG9w0BCQEWGGNhQHJhaWxndW4tc29sdXRpb25zLmNvbTAeFw0xNTExMTQxNjQ1
MzZaFw0xNjExMTMxNjQ1MzZaMGExCzAJBgNVBAYTAlBMMQ4wDAYDVQQIDAVTbGFz
azEQMA4GA1UEBwwHR2xpd2ljZTEQMA4GA1UECgwHUGFuZGEtNTEeMBwGA1UEAwwV
cGFuZGEtNS5oZXJva3VhcHAuY29tMIIBIjANBgkqhkiG9w0BAQEFAAOCAQ8AMIIB
CgKCAQEAygp8fGkf9g/h6o5mGonj0YmRfCYjWUtlR2KtGte4rHh7JqAsy1DL9H83
anJIdaKFe4D6sVFvZ1zJxHayziVHEuW6bHbAYEtvVrm7lWk6goJTXfWT8phNuSzy
KzzLTNq/MXfBPFyArM7nsVzt0dyMNLNf9oqBzxgxwhuu5kOrYr8xkmBvXZFJgObu
proGeQt5+KfZTn+HOjH/wIGGn1mp5wuPtan8BkoPAYvmkFCnNMP7LQaCA7xVCj6o
Q9CpdjGWrXkVPmOsD3QHTMSPcAblcbfDgrDOwdgLDr+tQX2yv3IQwbD7Axe775MK
8nh0DItxLKCkds7g7un3wBz6GG9XiQIDAQABo3sweTAJBgNVHRMEAjAAMCwGCWCG
SAGG+EIBDQQfFh1PcGVuU1NMIEdlbmVyYXRlZCBDZXJ0aWZpY2F0ZTAdBgNVHQ4E
FgQUjt3BGDJI8Xlfs3agj2A59feG0eUwHwYDVR0jBBgwFoAUuicnVIybzUnjiC9u
UgBVkhn0bwQwDQYJKoZIhvcNAQELBQADggEBABzXOLeHNvtlwQtSaqZ7DLz6DQLj
p7oMZNe/fDkG06l5ENEsn1ckchw6T43tWW7GwzoGIzw0ue1hjW1Vb+d8qwQGHShT
ObvMkOzSbej7pVCScYqxQWqUkQzJ93316sSXQObLDg4V4jFSvkI0rbS7FKgsxGs6
kuvZ8WUA2Qx+nZkRg6vY3PYl4bsypt16K5iR9Z8W6nLiIYSC1HHNBLovsWRBtVG2
dhTGog23Ne2zw6gaq24jMu+v6+gRZDQS9vKIOaJSIHQACgUZSjV3bNIc9ZiDkSjL
yi4XE8h56aH2Q4f6/QsTQkvDDggKDRLU8/8I0aIiLXcjAYfGhJftDb9MO1s=
-----END CERTIFICATE-----
